(dp0
S'Larry Wang'
p1
ccopy_reg
_reconstructor
p2
(cAthleteList
AthleteList
p3
c__builtin__
list
p4
(lp5
S'2:58'
p6
aS'2.59'
p7
aS'2:39'
p8
aS'2-24'
p9
aS'2-55'
p10
aS'2:54'
p11
aS'2.19'
p12
aS'2-21'
p13
aS'2.23'
p14
atp15
Rp16
(dp17
S'dob'
p18
S' 2012-3-15'
p19
sS'name'
p20
g1
sbs.